; Function Attrs: mustprogress nofree norecurse nosync nounwind willreturn memory(argmem: write) uwtable
define void @Cec3_SetDefaultParams(ptr noundef writeonly captures(none) initializes((0, 32)) %0) local_unnamed_addr #0 {
  store i32 12, ptr %0, align 4, !tbaa !3
  %2 = getelementptr inbounds nuw i8, ptr %0, i64 4
  store i32 4, ptr %2, align 4, !tbaa !8
  %3 = getelementptr inbounds nuw i8, ptr %0, i64 8
  store i32 10, ptr %3, align 4, !tbaa !9
  %4 = getelementptr inbounds nuw i8, ptr %0, i64 12
  store i32 1000, ptr %4, align 4, !tbaa !10
  %5 = getelementptr inbounds nuw i8, ptr %0, i64 16
  tail call void @llvm.memset.p0.i64(ptr noundef nonnull align 4 dereferenceable(16) %5, i8 0, i64 16, i1 false)
  ret void
}